target datalayout = "e-m:e-p270:32:32-p271:32:32-p272:64:64-i64:64-i128:128-f80:128-n8:16:32:64-S128"
target triple = "x86_64-pc-linux-gnu"

%"struct.tbb::detail::d1::constraints" = type { i32, i32, i32, i32 }

@_ZN3tbb6detail2r127get_default_concurrency_ptrE = global ptr @_ZN3tbb6detail2r1L29dummy_get_default_concurrencyEiii, align 8
@_ZZN3tbb6detail2r18governor19default_num_threadsEvE11num_threads = linkonce_odr global i32 0, comdat, align 4
@_ZGVZN3tbb6detail2r18governor19default_num_threadsEvE11num_threads = linkonce_odr global i64 0, comdat, align 8

; Function Attrs: mustprogress sspstrong uwtable
define linkonce_odr noundef i32 @_ZN3tbb6detail2r18governor19default_num_threadsEv() #1 comdat align 2 personality ptr @__gxx_personality_v0 {
  %1 = alloca ptr, align 8
  %2 = alloca i32, align 4
  %3 = load atomic i8, ptr @_ZGVZN3tbb6detail2r18governor19default_num_threadsEvE11num_threads acquire, align 8
  %4 = icmp eq i8 %3, 0
  br i1 %4, label %5, label %11, !prof !96

5:                                                ; preds = %0
  %6 = call i32 @__cxa_guard_acquire(ptr @_ZGVZN3tbb6detail2r18governor19default_num_threadsEvE11num_threads) #12
  %7 = icmp ne i32 %6, 0
  br i1 %7, label %8, label %11

8:                                                ; preds = %5
  %9 = invoke noundef i32 @_ZN3tbb6detail2r122AvailableHwConcurrencyEv()
          to label %10 unwind label %13

10:                                               ; preds = %8
  store i32 %9, ptr @_ZZN3tbb6detail2r18governor19default_num_threadsEvE11num_threads, align 4, !tbaa !3
  call void @__cxa_guard_release(ptr @_ZGVZN3tbb6detail2r18governor19default_num_threadsEvE11num_threads) #12
  br label %11

11:                                               ; preds = %10, %5, %0
  %12 = load i32, ptr @_ZZN3tbb6detail2r18governor19default_num_threadsEvE11num_threads, align 4, !tbaa !3
  ret i32 %12

13:                                               ; preds = %8
  %14 = landingpad { ptr, i32 }
          cleanup
  %15 = extractvalue { ptr, i32 } %14, 0
  store ptr %15, ptr %1, align 8
  %16 = extractvalue { ptr, i32 } %14, 1
  store i32 %16, ptr %2, align 4
  call void @__cxa_guard_abort(ptr @_ZGVZN3tbb6detail2r18governor19default_num_threadsEvE11num_threads) #12
  br label %17

17:                                               ; preds = %13
  %18 = load ptr, ptr %1, align 8
  %19 = load i32, ptr %2, align 4
  %20 = insertvalue { ptr, i32 } poison, ptr %18, 0
  %21 = insertvalue { ptr, i32 } %20, i32 %19, 1
  resume { ptr, i32 } %21
}

; Function Attrs: mustprogress sspstrong uwtable
define noundef i32 @_ZN3tbb6detail2r131constraints_default_concurrencyERKNS0_2d111constraintsEl(ptr noundef nonnull align 4 dereferenceable(16) %0, i64 noundef %1) #1 {
  %3 = alloca i32, align 4
  %4 = alloca ptr, align 8
  %5 = alloca i64, align 8
  %6 = alloca %"struct.tbb::detail::d1::constraints", align 4
  store ptr %0, ptr %4, align 8, !tbaa !97
  store i64 %1, ptr %5, align 8, !tbaa !94
  %7 = load ptr, ptr %4, align 8, !tbaa !97
  call void @llvm.memcpy.p0.p0.i64(ptr align 4 %6, ptr align 4 %7, i64 16, i1 false), !tbaa.struct !174
  %8 = getelementptr inbounds nuw { i64, i64 }, ptr %6, i32 0, i32 0
  %9 = load i64, ptr %8, align 4
  %10 = getelementptr inbounds nuw { i64, i64 }, ptr %6, i32 0, i32 1
  %11 = load i64, ptr %10, align 4
  call void @_ZN3tbb6detail2r121constraints_assertionENS0_2d111constraintsE(i64 %9, i64 %11)
  %12 = load ptr, ptr %4, align 8, !tbaa !97
  %13 = getelementptr inbounds nuw %"struct.tbb::detail::d1::constraints", ptr %12, i32 0, i32 0
  %14 = load i32, ptr %13, align 4, !tbaa !99
  %15 = icmp sge i32 %14, 0
  br i1 %15, label %26, label %16

16:                                               ; preds = %2
  %17 = load ptr, ptr %4, align 8, !tbaa !97
  %18 = getelementptr inbounds nuw %"struct.tbb::detail::d1::constraints", ptr %17, i32 0, i32 2
  %19 = load i32, ptr %18, align 4, !tbaa !102
  %20 = icmp sge i32 %19, 0
  br i1 %20, label %26, label %21

21:                                               ; preds = %16
  %22 = load ptr, ptr %4, align 8, !tbaa !97
  %23 = getelementptr inbounds nuw %"struct.tbb::detail::d1::constraints", ptr %22, i32 0, i32 3
  %24 = load i32, ptr %23, align 4, !tbaa !103
  %25 = icmp sgt i32 %24, 0
  br i1 %25, label %26, label %38

26:                                               ; preds = %21, %16, %2
  call void @_ZN3tbb6detail2r115system_topology10initializeEv()
  %27 = load ptr, ptr @_ZN3tbb6detail2r127get_default_concurrency_ptrE, align 8, !tbaa !12
  %28 = load ptr, ptr %4, align 8, !tbaa !97
  %29 = getelementptr inbounds nuw %"struct.tbb::detail::d1::constraints", ptr %28, i32 0, i32 0
  %30 = load i32, ptr %29, align 4, !tbaa !99
  %31 = load ptr, ptr %4, align 8, !tbaa !97
  %32 = getelementptr inbounds nuw %"struct.tbb::detail::d1::constraints", ptr %31, i32 0, i32 2
  %33 = load i32, ptr %32, align 4, !tbaa !102
  %34 = load ptr, ptr %4, align 8, !tbaa !97
  %35 = getelementptr inbounds nuw %"struct.tbb::detail::d1::constraints", ptr %34, i32 0, i32 3
  %36 = load i32, ptr %35, align 4, !tbaa !103
  %37 = call noundef i32 %27(i32 noundef %30, i32 noundef %33, i32 noundef %36)
  store i32 %37, ptr %3, align 4
  br label %40

38:                                               ; preds = %21
  %39 = call noundef i32 @_ZN3tbb6detail2r18governor19default_num_threadsEv()
  store i32 %39, ptr %3, align 4
  br label %40

40:                                               ; preds = %38, %26
  %41 = load i32, ptr %3, align 4
  ret i32 %41
}