; Function Attrs: mustprogress sspstrong uwtable
define noundef i32 @_ZN3tbb6detail2r131constraints_default_concurrencyERKNS0_2d111constraintsEl(ptr noundef nonnull readonly align 4 captures(none) dereferenceable(16) %0, i64 noundef %1) local_unnamed_addr #1 personality ptr @__gxx_personality_v0 {
  %.sroa.0.0.copyload = load i64, ptr %0, align 4
  %.sroa.2.0..sroa_idx = getelementptr inbounds nuw i8, ptr %0, i64 8
  %.sroa.2.0.copyload = load i64, ptr %.sroa.2.0..sroa_idx, align 4
  tail call void @_ZN3tbb6detail2r121constraints_assertionENS0_2d111constraintsE(i64 %.sroa.0.0.copyload, i64 %.sroa.2.0.copyload)
  %3 = load i32, ptr %0, align 4, !tbaa !143
  %4 = icmp sgt i32 %3, -1
  %5 = load i32, ptr %.sroa.2.0..sroa_idx, align 4
  %6 = icmp sgt i32 %5, -1
  %or.cond = select i1 %4, i1 true, i1 %6
  %7 = getelementptr inbounds nuw i8, ptr %0, i64 12
  %8 = load i32, ptr %7, align 4
  %9 = icmp sgt i32 %8, 0
  %or.cond10 = select i1 %or.cond, i1 true, i1 %9
  br i1 %or.cond10, label %10, label %16

10:                                               ; preds = %2
  tail call void @_ZN3tbb6detail2r115system_topology10initializeEv()
  %11 = load ptr, ptr @_ZN3tbb6detail2r127get_default_concurrency_ptrE, align 8, !tbaa !98
  %12 = load i32, ptr %0, align 4, !tbaa !143
  %13 = load i32, ptr %.sroa.2.0..sroa_idx, align 4, !tbaa !145
  %14 = load i32, ptr %7, align 4, !tbaa !146
  %15 = tail call noundef i32 %11(i32 noundef %12, i32 noundef %13, i32 noundef %14)
  br label %27

16:                                               ; preds = %2
  %17 = load atomic i8, ptr @_ZGVZN3tbb6detail2r18governor19default_num_threadsEvE11num_threads acquire, align 8
  %18 = icmp eq i8 %17, 0
  br i1 %18, label %19, label %_ZN3tbb6detail2r18governor19default_num_threadsEv.exit, !prof !101

19:                                               ; preds = %16
  %20 = tail call i32 @__cxa_guard_acquire(ptr nonnull @_ZGVZN3tbb6detail2r18governor19default_num_threadsEvE11num_threads) #8
  %.not.i = icmp eq i32 %20, 0
  br i1 %.not.i, label %_ZN3tbb6detail2r18governor19default_num_threadsEv.exit, label %21

21:                                               ; preds = %19
  %22 = invoke noundef i32 @_ZN3tbb6detail2r122AvailableHwConcurrencyEv()
          to label %23 unwind label %24

23:                                               ; preds = %21
  store i32 %22, ptr @_ZZN3tbb6detail2r18governor19default_num_threadsEvE11num_threads, align 4, !tbaa !102
  tail call void @__cxa_guard_release(ptr nonnull @_ZGVZN3tbb6detail2r18governor19default_num_threadsEvE11num_threads) #8
  br label %_ZN3tbb6detail2r18governor19default_num_threadsEv.exit

24:                                               ; preds = %21
  %25 = landingpad { ptr, i32 }
          cleanup
  tail call void @__cxa_guard_abort(ptr nonnull @_ZGVZN3tbb6detail2r18governor19default_num_threadsEvE11num_threads) #8
  resume { ptr, i32 } %25

_ZN3tbb6detail2r18governor19default_num_threadsEv.exit: ; preds = %16, %19, %23
  %26 = load i32, ptr @_ZZN3tbb6detail2r18governor19default_num_threadsEvE11num_threads, align 4, !tbaa !102
  br label %27

27:                                               ; preds = %_ZN3tbb6detail2r18governor19default_num_threadsEv.exit, %10
  %.0 = phi i32 [ %15, %10 ], [ %26, %_ZN3tbb6detail2r18governor19default_num_threadsEv.exit ]
  ret i32 %.0
}